ARM GAS  /tmp/ccH1pSh8.s 			page 1


   1              		.cpu cortex-m4
   2              		.eabi_attribute 27, 1
   3              		.eabi_attribute 28, 1
   4              		.eabi_attribute 20, 1
   5              		.eabi_attribute 21, 1
   6              		.eabi_attribute 23, 3
   7              		.eabi_attribute 24, 1
   8              		.eabi_attribute 25, 1
   9              		.eabi_attribute 26, 1
  10              		.eabi_attribute 30, 1
  11              		.eabi_attribute 34, 1
  12              		.eabi_attribute 18, 4
  13              		.file	"watchdog.c"
  14              		.text
  15              	.Ltext0:
  16              		.cfi_sections	.debug_frame
  17              		.section	.text.wd_pet,"ax",%progbits
  18              		.align	1
  19              		.global	wd_pet
  20              		.arch armv7e-m
  21              		.syntax unified
  22              		.thumb
  23              		.thumb_func
  24              		.fpu fpv4-sp-d16
  26              	wd_pet:
  27              	.LVL0:
  28              	.LFB132:
  29              		.file 1 "source/modules/watchdog/watchdog.c"
   1:source/modules/watchdog/watchdog.c **** #include "watchdog.h"
   2:source/modules/watchdog/watchdog.c **** #include "watchdog_conf.h"
   3:source/modules/watchdog/watchdog.c **** #include "main.h"
   4:source/modules/watchdog/watchdog.c **** #include "tim.h"
   5:source/modules/watchdog/watchdog.c **** #include <string.h>
   6:source/modules/watchdog/watchdog.c **** 
   7:source/modules/watchdog/watchdog.c **** static void (*hooks[NUM_WATCHDOGS]) ();
   8:source/modules/watchdog/watchdog.c **** static int counter_value[NUM_WATCHDOGS];
   9:source/modules/watchdog/watchdog.c **** 
  10:source/modules/watchdog/watchdog.c **** void wd_pet(int wd) {
  30              		.loc 1 10 21 view -0
  31              		.cfi_startproc
  32              		@ args = 0, pretend = 0, frame = 0
  33              		@ frame_needed = 0, uses_anonymous_args = 0
  11:source/modules/watchdog/watchdog.c ****     if(wd >= NUM_WATCHDOGS || wd < 0) {
  34              		.loc 1 11 5 view .LVU1
  35              		.loc 1 11 7 is_stmt 0 view .LVU2
  36 0000 00B1     		cbz	r0, .L7
  37 0002 7047     		bx	lr
  38              	.L7:
  10:source/modules/watchdog/watchdog.c ****     if(wd >= NUM_WATCHDOGS || wd < 0) {
  39              		.loc 1 10 21 view .LVU3
  40 0004 38B5     		push	{r3, r4, r5, lr}
  41              	.LCFI0:
  42              		.cfi_def_cfa_offset 16
  43              		.cfi_offset 3, -16
  44              		.cfi_offset 4, -12
  45              		.cfi_offset 5, -8
  46              		.cfi_offset 14, -4
ARM GAS  /tmp/ccH1pSh8.s 			page 2


  47 0006 0546     		mov	r5, r0
  12:source/modules/watchdog/watchdog.c ****         // invalid
  13:source/modules/watchdog/watchdog.c ****         return;
  14:source/modules/watchdog/watchdog.c ****     }
  15:source/modules/watchdog/watchdog.c **** 
  16:source/modules/watchdog/watchdog.c ****     // turn timer off
  17:source/modules/watchdog/watchdog.c ****     HAL_TIM_Base_Stop_IT(wd_timers[wd]);
  48              		.loc 1 17 5 is_stmt 1 view .LVU4
  49 0008 074C     		ldr	r4, .L8
  50 000a 2046     		mov	r0, r4
  51              	.LVL1:
  52              		.loc 1 17 5 is_stmt 0 view .LVU5
  53 000c FFF7FEFF 		bl	HAL_TIM_Base_Stop_IT
  54              	.LVL2:
  18:source/modules/watchdog/watchdog.c **** 
  19:source/modules/watchdog/watchdog.c ****     // reset counter
  20:source/modules/watchdog/watchdog.c ****     wd_timers[wd]->Instance->CNT = counter_value[counter_value[wd]];
  55              		.loc 1 20 5 is_stmt 1 view .LVU6
  56              		.loc 1 20 63 is_stmt 0 view .LVU7
  57 0010 064B     		ldr	r3, .L8+4
  58 0012 53F82510 		ldr	r1, [r3, r5, lsl #2]
  59              		.loc 1 20 18 view .LVU8
  60 0016 2268     		ldr	r2, [r4]
  61              		.loc 1 20 49 view .LVU9
  62 0018 53F82130 		ldr	r3, [r3, r1, lsl #2]
  63              		.loc 1 20 34 view .LVU10
  64 001c 5362     		str	r3, [r2, #36]
  21:source/modules/watchdog/watchdog.c **** 
  22:source/modules/watchdog/watchdog.c ****     // turn timer back on
  23:source/modules/watchdog/watchdog.c ****     HAL_TIM_Base_Start_IT(wd_timers[wd]);
  65              		.loc 1 23 5 is_stmt 1 view .LVU11
  66 001e 2046     		mov	r0, r4
  67 0020 FFF7FEFF 		bl	HAL_TIM_Base_Start_IT
  68              	.LVL3:
  24:source/modules/watchdog/watchdog.c **** }
  69              		.loc 1 24 1 is_stmt 0 view .LVU12
  70 0024 38BD     		pop	{r3, r4, r5, pc}
  71              	.LVL4:
  72              	.L9:
  73              		.loc 1 24 1 view .LVU13
  74 0026 00BF     		.align	2
  75              	.L8:
  76 0028 00000000 		.word	htim2
  77 002c 00000000 		.word	.LANCHOR0
  78              		.cfi_endproc
  79              	.LFE132:
  81              		.section	.text.wd_set_counter,"ax",%progbits
  82              		.align	1
  83              		.global	wd_set_counter
  84              		.syntax unified
  85              		.thumb
  86              		.thumb_func
  87              		.fpu fpv4-sp-d16
  89              	wd_set_counter:
  90              	.LVL5:
  91              	.LFB133:
  25:source/modules/watchdog/watchdog.c **** 
ARM GAS  /tmp/ccH1pSh8.s 			page 3


  26:source/modules/watchdog/watchdog.c **** void wd_set_counter(int wd, uint32_t cnt) {
  92              		.loc 1 26 43 is_stmt 1 view -0
  93              		.cfi_startproc
  94              		@ args = 0, pretend = 0, frame = 0
  95              		@ frame_needed = 0, uses_anonymous_args = 0
  27:source/modules/watchdog/watchdog.c ****     if(wd >= NUM_WATCHDOGS || wd < 0) {
  96              		.loc 1 27 5 view .LVU15
  97              		.loc 1 27 7 is_stmt 0 view .LVU16
  98 0000 00B1     		cbz	r0, .L16
  99 0002 7047     		bx	lr
 100              	.L16:
  26:source/modules/watchdog/watchdog.c ****     if(wd >= NUM_WATCHDOGS || wd < 0) {
 101              		.loc 1 26 43 view .LVU17
 102 0004 08B5     		push	{r3, lr}
 103              	.LCFI1:
 104              		.cfi_def_cfa_offset 8
 105              		.cfi_offset 3, -8
 106              		.cfi_offset 14, -4
  28:source/modules/watchdog/watchdog.c ****         // invalid
  29:source/modules/watchdog/watchdog.c ****         return;
  30:source/modules/watchdog/watchdog.c ****     }
  31:source/modules/watchdog/watchdog.c **** 
  32:source/modules/watchdog/watchdog.c ****     counter_value[wd] = cnt;
 107              		.loc 1 32 5 is_stmt 1 view .LVU18
 108              		.loc 1 32 23 is_stmt 0 view .LVU19
 109 0006 034A     		ldr	r2, .L17
 110 0008 42F82010 		str	r1, [r2, r0, lsl #2]
  33:source/modules/watchdog/watchdog.c **** 
  34:source/modules/watchdog/watchdog.c ****     // reset the timer
  35:source/modules/watchdog/watchdog.c ****     wd_pet(wd);
 111              		.loc 1 35 5 is_stmt 1 view .LVU20
 112 000c FFF7FEFF 		bl	wd_pet
 113              	.LVL6:
  36:source/modules/watchdog/watchdog.c **** }
 114              		.loc 1 36 1 is_stmt 0 view .LVU21
 115 0010 08BD     		pop	{r3, pc}
 116              	.L18:
 117 0012 00BF     		.align	2
 118              	.L17:
 119 0014 00000000 		.word	.LANCHOR0
 120              		.cfi_endproc
 121              	.LFE133:
 123              		.section	.text.wd_attach_hook,"ax",%progbits
 124              		.align	1
 125              		.global	wd_attach_hook
 126              		.syntax unified
 127              		.thumb
 128              		.thumb_func
 129              		.fpu fpv4-sp-d16
 131              	wd_attach_hook:
 132              	.LVL7:
 133              	.LFB134:
  37:source/modules/watchdog/watchdog.c **** 
  38:source/modules/watchdog/watchdog.c **** 
  39:source/modules/watchdog/watchdog.c **** void wd_attach_hook(int wd, void (*hook_func) ()) {
 134              		.loc 1 39 51 is_stmt 1 view -0
 135              		.cfi_startproc
ARM GAS  /tmp/ccH1pSh8.s 			page 4


 136              		@ args = 0, pretend = 0, frame = 0
 137              		@ frame_needed = 0, uses_anonymous_args = 0
 138              		@ link register save eliminated.
  40:source/modules/watchdog/watchdog.c ****     if(wd >= NUM_WATCHDOGS || wd < 0) {
 139              		.loc 1 40 5 view .LVU23
 140              		.loc 1 40 7 is_stmt 0 view .LVU24
 141 0000 10B9     		cbnz	r0, .L19
  41:source/modules/watchdog/watchdog.c ****         // invalid
  42:source/modules/watchdog/watchdog.c ****         return;
  43:source/modules/watchdog/watchdog.c ****     }
  44:source/modules/watchdog/watchdog.c **** 
  45:source/modules/watchdog/watchdog.c ****     hooks[wd] = hook_func;
 142              		.loc 1 45 5 is_stmt 1 view .LVU25
 143              		.loc 1 45 15 is_stmt 0 view .LVU26
 144 0002 024A     		ldr	r2, .L21
 145 0004 42F82010 		str	r1, [r2, r0, lsl #2]
 146              	.L19:
  46:source/modules/watchdog/watchdog.c **** }
 147              		.loc 1 46 1 view .LVU27
 148 0008 7047     		bx	lr
 149              	.L22:
 150 000a 00BF     		.align	2
 151              	.L21:
 152 000c 00000000 		.word	.LANCHOR1
 153              		.cfi_endproc
 154              	.LFE134:
 156              		.section	.text.HAL_TIM_PeriodElapsedCallback,"ax",%progbits
 157              		.align	1
 158              		.global	HAL_TIM_PeriodElapsedCallback
 159              		.syntax unified
 160              		.thumb
 161              		.thumb_func
 162              		.fpu fpv4-sp-d16
 164              	HAL_TIM_PeriodElapsedCallback:
 165              	.LVL8:
 166              	.LFB135:
  47:source/modules/watchdog/watchdog.c **** 
  48:source/modules/watchdog/watchdog.c **** // function called by interrupt for timer
  49:source/modules/watchdog/watchdog.c **** void HAL_TIM_PeriodElapsedCallback(TIM_HandleTypeDef* htim) {
 167              		.loc 1 49 61 is_stmt 1 view -0
 168              		.cfi_startproc
 169              		@ args = 0, pretend = 0, frame = 0
 170              		@ frame_needed = 0, uses_anonymous_args = 0
 171              		.loc 1 49 61 is_stmt 0 view .LVU29
 172 0000 08B5     		push	{r3, lr}
 173              	.LCFI2:
 174              		.cfi_def_cfa_offset 8
 175              		.cfi_offset 3, -8
 176              		.cfi_offset 14, -4
  50:source/modules/watchdog/watchdog.c ****     // find which timer went off
  51:source/modules/watchdog/watchdog.c ****     size_t i;
 177              		.loc 1 51 5 is_stmt 1 view .LVU30
  52:source/modules/watchdog/watchdog.c ****     for(i = 0; i < NUM_WATCHDOGS; i++) {
 178              		.loc 1 52 5 view .LVU31
 179              	.LVL9:
 180              		.loc 1 52 11 is_stmt 0 view .LVU32
 181 0002 0023     		movs	r3, #0
ARM GAS  /tmp/ccH1pSh8.s 			page 5


 182              	.LVL10:
 183              	.L24:
 184              		.loc 1 52 18 is_stmt 1 discriminator 1 view .LVU33
 185 0004 3BB1     		cbz	r3, .L26
 186              	.L25:
  53:source/modules/watchdog/watchdog.c ****         if(wd_timers[i] == htim) {
  54:source/modules/watchdog/watchdog.c ****             break;
  55:source/modules/watchdog/watchdog.c ****         }
  56:source/modules/watchdog/watchdog.c ****     }
  57:source/modules/watchdog/watchdog.c **** 
  58:source/modules/watchdog/watchdog.c ****     if(i == NUM_WATCHDOGS) {
 187              		.loc 1 58 5 view .LVU34
 188              		.loc 1 58 7 is_stmt 0 view .LVU35
 189 0006 012B     		cmp	r3, #1
 190 0008 04D0     		beq	.L23
  59:source/modules/watchdog/watchdog.c ****         // not a timer we're tracking
  60:source/modules/watchdog/watchdog.c ****         return;
  61:source/modules/watchdog/watchdog.c ****     }
  62:source/modules/watchdog/watchdog.c **** 
  63:source/modules/watchdog/watchdog.c ****     // call the hook function for this watchdog if it exists
  64:source/modules/watchdog/watchdog.c ****     if(hooks[i]) {
 191              		.loc 1 64 5 is_stmt 1 view .LVU36
 192              		.loc 1 64 13 is_stmt 0 view .LVU37
 193 000a 054A     		ldr	r2, .L29
 194 000c 52F82330 		ldr	r3, [r2, r3, lsl #2]
 195              	.LVL11:
 196              		.loc 1 64 7 view .LVU38
 197 0010 03B1     		cbz	r3, .L23
  65:source/modules/watchdog/watchdog.c ****         hooks[i]();
 198              		.loc 1 65 9 is_stmt 1 view .LVU39
 199 0012 9847     		blx	r3
 200              	.LVL12:
 201              	.L23:
  66:source/modules/watchdog/watchdog.c ****     }
  67:source/modules/watchdog/watchdog.c **** 
  68:source/modules/watchdog/watchdog.c ****     // HAL should take care of the rest of it for us
  69:source/modules/watchdog/watchdog.c **** }
 202              		.loc 1 69 1 is_stmt 0 view .LVU40
 203 0014 08BD     		pop	{r3, pc}
 204              	.LVL13:
 205              	.L26:
  53:source/modules/watchdog/watchdog.c ****             break;
 206              		.loc 1 53 9 is_stmt 1 view .LVU41
  53:source/modules/watchdog/watchdog.c ****             break;
 207              		.loc 1 53 11 is_stmt 0 view .LVU42
 208 0016 034A     		ldr	r2, .L29+4
 209 0018 9042     		cmp	r0, r2
 210 001a F4D0     		beq	.L25
  52:source/modules/watchdog/watchdog.c ****         if(wd_timers[i] == htim) {
 211              		.loc 1 52 36 is_stmt 1 discriminator 2 view .LVU43
 212 001c 0133     		adds	r3, r3, #1
 213              	.LVL14:
  52:source/modules/watchdog/watchdog.c ****         if(wd_timers[i] == htim) {
 214              		.loc 1 52 36 is_stmt 0 discriminator 2 view .LVU44
 215 001e F1E7     		b	.L24
 216              	.L30:
 217              		.align	2
ARM GAS  /tmp/ccH1pSh8.s 			page 6


 218              	.L29:
 219 0020 00000000 		.word	.LANCHOR1
 220 0024 00000000 		.word	htim2
 221              		.cfi_endproc
 222              	.LFE135:
 224              		.section	.rodata.wd_search_name.str1.4,"aMS",%progbits,1
 225              		.align	2
 226              	.LC0:
 227 0000 74656C65 		.ascii	"telemetry_watchdog\000"
 227      6D657472 
 227      795F7761 
 227      74636864 
 227      6F6700
 228              		.section	.text.wd_search_name,"ax",%progbits
 229              		.align	1
 230              		.global	wd_search_name
 231              		.syntax unified
 232              		.thumb
 233              		.thumb_func
 234              		.fpu fpv4-sp-d16
 236              	wd_search_name:
 237              	.LVL15:
 238              	.LFB136:
  70:source/modules/watchdog/watchdog.c **** 
  71:source/modules/watchdog/watchdog.c **** int wd_search_name(const char* name) {
 239              		.loc 1 71 38 is_stmt 1 view -0
 240              		.cfi_startproc
 241              		@ args = 0, pretend = 0, frame = 0
 242              		@ frame_needed = 0, uses_anonymous_args = 0
 243              		.loc 1 71 38 is_stmt 0 view .LVU46
 244 0000 70B5     		push	{r4, r5, r6, lr}
 245              	.LCFI3:
 246              		.cfi_def_cfa_offset 16
 247              		.cfi_offset 4, -16
 248              		.cfi_offset 5, -12
 249              		.cfi_offset 6, -8
 250              		.cfi_offset 14, -4
 251 0002 0546     		mov	r5, r0
  72:source/modules/watchdog/watchdog.c ****     int wd = -1;
 252              		.loc 1 72 5 is_stmt 1 view .LVU47
 253              	.LVL16:
  73:source/modules/watchdog/watchdog.c ****     for(size_t i = 0; i < NUM_WATCHDOGS; i++) {
 254              		.loc 1 73 5 view .LVU48
 255              	.LBB2:
 256              		.loc 1 73 9 view .LVU49
 257              		.loc 1 73 16 is_stmt 0 view .LVU50
 258 0004 0024     		movs	r4, #0
 259              	.LBE2:
  72:source/modules/watchdog/watchdog.c ****     int wd = -1;
 260              		.loc 1 72 9 view .LVU51
 261 0006 4FF0FF36 		mov	r6, #-1
 262              	.LVL17:
 263              	.L32:
 264              	.LBB3:
 265              		.loc 1 73 25 is_stmt 1 discriminator 1 view .LVU52
 266 000a 0CB1     		cbz	r4, .L34
 267              	.LBE3:
ARM GAS  /tmp/ccH1pSh8.s 			page 7


  74:source/modules/watchdog/watchdog.c ****         if(!strcmp(name, wd_names[i])) {
  75:source/modules/watchdog/watchdog.c ****             wd = i;
  76:source/modules/watchdog/watchdog.c ****         }
  77:source/modules/watchdog/watchdog.c ****     }
  78:source/modules/watchdog/watchdog.c **** 
  79:source/modules/watchdog/watchdog.c ****     return wd;
 268              		.loc 1 79 5 view .LVU53
  80:source/modules/watchdog/watchdog.c **** }
 269              		.loc 1 80 1 is_stmt 0 view .LVU54
 270 000c 3046     		mov	r0, r6
 271 000e 70BD     		pop	{r4, r5, r6, pc}
 272              	.LVL18:
 273              	.L34:
 274              	.LBB4:
  74:source/modules/watchdog/watchdog.c ****         if(!strcmp(name, wd_names[i])) {
 275              		.loc 1 74 9 is_stmt 1 view .LVU55
  74:source/modules/watchdog/watchdog.c ****         if(!strcmp(name, wd_names[i])) {
 276              		.loc 1 74 13 is_stmt 0 view .LVU56
 277 0010 0349     		ldr	r1, .L36
 278 0012 2846     		mov	r0, r5
 279 0014 FFF7FEFF 		bl	strcmp
 280              	.LVL19:
  74:source/modules/watchdog/watchdog.c ****         if(!strcmp(name, wd_names[i])) {
 281              		.loc 1 74 11 view .LVU57
 282 0018 00B9     		cbnz	r0, .L33
  75:source/modules/watchdog/watchdog.c ****         }
 283              		.loc 1 75 13 is_stmt 1 view .LVU58
  75:source/modules/watchdog/watchdog.c ****         }
 284              		.loc 1 75 16 is_stmt 0 view .LVU59
 285 001a 2646     		mov	r6, r4
 286              	.LVL20:
 287              	.L33:
  73:source/modules/watchdog/watchdog.c ****         if(!strcmp(name, wd_names[i])) {
 288              		.loc 1 73 43 is_stmt 1 discriminator 2 view .LVU60
 289 001c 0134     		adds	r4, r4, #1
 290              	.LVL21:
  73:source/modules/watchdog/watchdog.c ****         if(!strcmp(name, wd_names[i])) {
 291              		.loc 1 73 43 is_stmt 0 discriminator 2 view .LVU61
 292 001e F4E7     		b	.L32
 293              	.L37:
 294              		.align	2
 295              	.L36:
 296 0020 00000000 		.word	.LC0
 297              	.LBE4:
 298              		.cfi_endproc
 299              	.LFE136:
 301              		.section	.bss.counter_value,"aw",%nobits
 302              		.align	2
 303              		.set	.LANCHOR0,. + 0
 306              	counter_value:
 307 0000 00000000 		.space	4
 308              		.section	.bss.hooks,"aw",%nobits
 309              		.align	2
 310              		.set	.LANCHOR1,. + 0
 313              	hooks:
 314 0000 00000000 		.space	4
 315              		.text
ARM GAS  /tmp/ccH1pSh8.s 			page 8


 316              	.Letext0:
 317              		.file 2 "/usr/arm-none-eabi/include/machine/_default_types.h"
 318              		.file 3 "/usr/arm-none-eabi/include/sys/_stdint.h"
 319              		.file 4 "Drivers/CMSIS/Device/ST/STM32L4xx/Include/stm32l452xx.h"
 320              		.file 5 "/usr/lib/gcc/arm-none-eabi/11.2.0/include/stddef.h"
 321              		.file 6 "Drivers/STM32L4xx_HAL_Driver/Inc/stm32l4xx_hal_def.h"
 322              		.file 7 "Drivers/STM32L4xx_HAL_Driver/Inc/stm32l4xx_hal_dma.h"
 323              		.file 8 "Drivers/STM32L4xx_HAL_Driver/Inc/stm32l4xx_hal_tim.h"
 324              		.file 9 "source/modules/watchdog/watchdog_conf.h"
 325              		.file 10 "/usr/arm-none-eabi/include/string.h"
 326              		.file 11 "Core/Inc/tim.h"
ARM GAS  /tmp/ccH1pSh8.s 			page 9

